target datalayout = "e-m:e-p270:32:32-p271:32:32-p272:64:64-i64:64-i128:128-f80:128-n8:16:32:64-S128"
target triple = "x86_64-pc-linux-gnu"

%"class.gmx::KeyValueTreeObject" = type { %"class.std::map", %"class.std::vector" }
%"class.std::map" = type { %"class.std::_Rb_tree" }
%"class.std::_Rb_tree" = type { %"struct.std::_Rb_tree<std::__cxx11::basic_string<char>, std::pair<const std::__cxx11::basic_string<char>, gmx::KeyValueTreeValue>, std::_Select1st<std::pair<const std::__cxx11::basic_string<char>, gmx::KeyValueTreeValue>>, std::less<std::__cxx11::basic_string<char>>>::_Rb_tree_impl" }
%"struct.std::_Rb_tree<std::__cxx11::basic_string<char>, std::pair<const std::__cxx11::basic_string<char>, gmx::KeyValueTreeValue>, std::_Select1st<std::pair<const std::__cxx11::basic_string<char>, gmx::KeyValueTreeValue>>, std::less<std::__cxx11::basic_string<char>>>::_Rb_tree_impl" = type { [8 x i8], %"struct.std::_Rb_tree_header" }
%"struct.std::_Rb_tree_header" = type { %"struct.std::_Rb_tree_node_base", i64 }
%"struct.std::_Rb_tree_node_base" = type { i32, ptr, ptr, ptr }
%"class.std::vector" = type { %"struct.std::_Vector_base" }
%"struct.std::_Vector_base" = type { %"struct.std::_Vector_base<gmx::KeyValueTreeProperty, std::allocator<gmx::KeyValueTreeProperty>>::_Vector_impl" }
%"struct.std::_Vector_base<gmx::KeyValueTreeProperty, std::allocator<gmx::KeyValueTreeProperty>>::_Vector_impl" = type { %"struct.std::_Vector_base<gmx::KeyValueTreeProperty, std::allocator<gmx::KeyValueTreeProperty>>::_Vector_impl_data" }
%"struct.std::_Vector_base<gmx::KeyValueTreeProperty, std::allocator<gmx::KeyValueTreeProperty>>::_Vector_impl_data" = type { ptr, ptr, ptr }
%"class.gmx::ReadCheckpointDataHolder" = type { %"class.gmx::KeyValueTreeObject" }
%"class.gmx::TextWriter" = type { %"class.std::unique_ptr.18" }
%"class.std::unique_ptr.18" = type { %"struct.std::__uniq_ptr_data.19" }
%"struct.std::__uniq_ptr_data.19" = type { %"class.std::__uniq_ptr_impl.20" }
%"class.std::__uniq_ptr_impl.20" = type { %"class.std::tuple.21" }
%"class.std::tuple.21" = type { %"struct.std::_Tuple_impl.22" }
%"struct.std::_Tuple_impl.22" = type { %"struct.std::_Head_base.25" }
%"struct.std::_Head_base.25" = type { ptr }

; Function Attrs: mustprogress uwtable
define void @_ZNK3gmx24ReadCheckpointDataHolder4dumpEP8_IO_FILE(ptr noundef nonnull align 8 dereferenceable(72) %0, ptr noundef %1) #0 align 2 personality ptr @__gxx_personality_v0 {
  %3 = alloca ptr, align 8
  %4 = alloca ptr, align 8
  %5 = alloca %"class.gmx::TextWriter", align 8
  %6 = alloca ptr, align 8
  %7 = alloca i32, align 4
  store ptr %0, ptr %3, align 8, !tbaa !4
  store ptr %1, ptr %4, align 8, !tbaa !178
  %8 = load ptr, ptr %3, align 8
  %9 = load ptr, ptr %4, align 8, !tbaa !178
  %10 = icmp ne ptr %9, null
  br i1 %10, label %11, label %19

11:                                               ; preds = %2
  call void @llvm.lifetime.start.p0(i64 8, ptr %5) #17
  %12 = load ptr, ptr %4, align 8, !tbaa !178
  call void @_ZN3gmx10TextWriterC1EP8_IO_FILE(ptr noundef nonnull align 8 dereferenceable(8) %5, ptr noundef %12)
  %13 = getelementptr inbounds nuw %"class.gmx::ReadCheckpointDataHolder", ptr %8, i32 0, i32 0
  invoke void @_ZN3gmx16dumpKeyValueTreeEPNS_10TextWriterERKNS_18KeyValueTreeObjectE(ptr noundef %5, ptr noundef nonnull align 8 dereferenceable(72) %13)
          to label %14 unwind label %15

14:                                               ; preds = %11
  call void @_ZN3gmx10TextWriterD1Ev(ptr noundef nonnull align 8 dereferenceable(8) %5) #17
  call void @llvm.lifetime.end.p0(i64 8, ptr %5) #17
  br label %19

15:                                               ; preds = %11
  %16 = landingpad { ptr, i32 }
          cleanup
  %17 = extractvalue { ptr, i32 } %16, 0
  store ptr %17, ptr %6, align 8
  %18 = extractvalue { ptr, i32 } %16, 1
  store i32 %18, ptr %7, align 4
  call void @_ZN3gmx10TextWriterD1Ev(ptr noundef nonnull align 8 dereferenceable(8) %5) #17
  call void @llvm.lifetime.end.p0(i64 8, ptr %5) #17
  br label %20

19:                                               ; preds = %14, %2
  ret void

20:                                               ; preds = %15
  %21 = load ptr, ptr %6, align 8
  %22 = load i32, ptr %7, align 4
  %23 = insertvalue { ptr, i32 } poison, ptr %21, 0
  %24 = insertvalue { ptr, i32 } %23, i32 %22, 1
  resume { ptr, i32 } %24
}