; Function Attrs: mustprogress uwtable
define void @_ZNK3gmx24ReadCheckpointDataHolder4dumpEP8_IO_FILE(ptr noundef nonnull align 8 dereferenceable(72) %0, ptr noundef %1) local_unnamed_addr #0 align 2 personality ptr @__gxx_personality_v0 {
  %3 = alloca %"class.gmx::TextWriter", align 8
  %.not = icmp eq ptr %1, null
  br i1 %.not, label %8, label %4

4:                                                ; preds = %2
  call void @llvm.lifetime.start.p0(i64 8, ptr nonnull %3) #21
  call void @_ZN3gmx10TextWriterC1EP8_IO_FILE(ptr noundef nonnull align 8 dereferenceable(8) %3, ptr noundef nonnull %1)
  invoke void @_ZN3gmx16dumpKeyValueTreeEPNS_10TextWriterERKNS_18KeyValueTreeObjectE(ptr noundef nonnull %3, ptr noundef nonnull align 8 dereferenceable(72) %0)
          to label %5 unwind label %6

5:                                                ; preds = %4
  call void @_ZN3gmx10TextWriterD1Ev(ptr noundef nonnull align 8 dereferenceable(8) %3) #21
  call void @llvm.lifetime.end.p0(i64 8, ptr nonnull %3) #21
  br label %8

6:                                                ; preds = %4
  %7 = landingpad { ptr, i32 }
          cleanup
  call void @_ZN3gmx10TextWriterD1Ev(ptr noundef nonnull align 8 dereferenceable(8) %3) #21
  call void @llvm.lifetime.end.p0(i64 8, ptr nonnull %3) #21
  resume { ptr, i32 } %7

8:                                                ; preds = %5, %2
  ret void
}